target datalayout = "e-m:e-p270:32:32-p271:32:32-p272:64:64-i64:64-i128:128-f80:128-n8:16:32:64-S128"
target triple = "x86_64-pc-linux-gnu"

%"class.duckdb::ByteStreamSplitDecoder" = type { ptr, ptr, %"class.duckdb::unique_ptr" }
%"class.duckdb::unique_ptr" = type { %"class.std::unique_ptr" }
%"class.std::unique_ptr" = type { %"struct.std::__uniq_ptr_data" }
%"struct.std::__uniq_ptr_data" = type { %"class.std::__uniq_ptr_impl" }
%"class.std::__uniq_ptr_impl" = type { %"class.std::tuple" }
%"class.std::tuple" = type { %"struct.std::_Tuple_impl" }
%"struct.std::_Tuple_impl" = type { %"struct.std::_Head_base.1" }
%"struct.std::_Head_base.1" = type { ptr }
%"class.duckdb::ColumnReader" = type { ptr, ptr, ptr, i64, i8, ptr, ptr, i64, i64, i64, %"class.duckdb::shared_ptr", %"class.duckdb::ResizeableBuffer", i32, %"class.duckdb::unique_ptr.2", %"class.duckdb::unique_ptr.2", %"class.duckdb::DictionaryDecoder", %"class.duckdb::DeltaBinaryPackedDecoder", %"class.duckdb::RLEDecoder", %"class.duckdb::DeltaLengthByteArrayDecoder", %"class.duckdb::DeltaByteArrayDecoder", %"class.duckdb::ByteStreamSplitDecoder", [2 x %"class.duckdb::ResizeableBuffer"] }
%"class.duckdb::shared_ptr" = type { %"class.std::shared_ptr" }
%"class.std::shared_ptr" = type { %"class.std::__shared_ptr" }
%"class.std::__shared_ptr" = type { ptr, %"class.std::__shared_count" }
%"class.std::__shared_count" = type { ptr }
%"class.duckdb::ResizeableBuffer" = type { %"class.duckdb::ByteBuffer", %"class.duckdb::AllocatedData", i64 }
%"class.duckdb::ByteBuffer" = type { ptr, i64 }
%"class.duckdb::AllocatedData" = type { %"class.duckdb::optional_ptr", ptr, i64 }
%"class.duckdb::optional_ptr" = type { ptr }
%"class.duckdb::unique_ptr.2" = type { %"class.std::unique_ptr.3" }
%"class.std::unique_ptr.3" = type { %"struct.std::__uniq_ptr_data.4" }
%"struct.std::__uniq_ptr_data.4" = type { %"class.std::__uniq_ptr_impl.5" }
%"class.std::__uniq_ptr_impl.5" = type { %"class.std::tuple.6" }
%"class.std::tuple.6" = type { %"struct.std::_Tuple_impl.7" }
%"struct.std::_Tuple_impl.7" = type { %"struct.std::_Head_base.10" }
%"struct.std::_Head_base.10" = type { ptr }
%"class.duckdb::DictionaryDecoder" = type { ptr, ptr, %"class.duckdb::unique_ptr.2", %"struct.duckdb::SelectionVector", %"struct.duckdb::SelectionVector", i64, %"class.duckdb::unique_ptr.15", %"class.duckdb::unique_ptr.24", i64, i8, %"class.std::__cxx11::basic_string" }
%"struct.duckdb::SelectionVector" = type { ptr, %"class.duckdb::shared_ptr.11" }
%"class.duckdb::shared_ptr.11" = type { %"class.std::shared_ptr.12" }
%"class.std::shared_ptr.12" = type { %"class.std::__shared_ptr.13" }
%"class.std::__shared_ptr.13" = type { ptr, %"class.std::__shared_count" }
%"class.duckdb::unique_ptr.15" = type { %"class.std::unique_ptr.16" }
%"class.std::unique_ptr.16" = type { %"struct.std::__uniq_ptr_data.17" }
%"struct.std::__uniq_ptr_data.17" = type { %"class.std::__uniq_ptr_impl.18" }
%"class.std::__uniq_ptr_impl.18" = type { %"class.std::tuple.19" }
%"class.std::tuple.19" = type { %"struct.std::_Tuple_impl.20" }
%"struct.std::_Tuple_impl.20" = type { %"struct.std::_Head_base.23" }
%"struct.std::_Head_base.23" = type { ptr }
%"class.duckdb::unique_ptr.24" = type { %"class.std::unique_ptr.25" }
%"class.std::unique_ptr.25" = type { %"struct.std::__uniq_ptr_data.26" }
%"struct.std::__uniq_ptr_data.26" = type { %"class.std::__uniq_ptr_impl.27" }
%"class.std::__uniq_ptr_impl.27" = type { %"class.std::tuple.28" }
%"class.std::tuple.28" = type { %"struct.std::_Tuple_impl.29" }
%"struct.std::_Tuple_impl.29" = type { %"struct.std::_Head_base.32" }
%"struct.std::_Head_base.32" = type { ptr }
%"class.std::__cxx11::basic_string" = type { %"struct.std::__cxx11::basic_string<char>::_Alloc_hider", i64, %union.anon }
%"struct.std::__cxx11::basic_string<char>::_Alloc_hider" = type { ptr }
%union.anon = type { i64, [8 x i8] }
%"class.duckdb::DeltaBinaryPackedDecoder" = type { ptr, ptr, %"class.duckdb::unique_ptr.33" }
%"class.duckdb::unique_ptr.33" = type { %"class.std::unique_ptr.34" }
%"class.std::unique_ptr.34" = type { %"struct.std::__uniq_ptr_data.35" }
%"struct.std::__uniq_ptr_data.35" = type { %"class.std::__uniq_ptr_impl.36" }
%"class.std::__uniq_ptr_impl.36" = type { %"class.std::tuple.37" }
%"class.std::tuple.37" = type { %"struct.std::_Tuple_impl.38" }
%"struct.std::_Tuple_impl.38" = type { %"struct.std::_Head_base.41" }
%"struct.std::_Head_base.41" = type { ptr }
%"class.duckdb::RLEDecoder" = type { ptr, ptr, %"class.duckdb::unique_ptr.2" }
%"class.duckdb::DeltaLengthByteArrayDecoder" = type { ptr, ptr, i64, i64 }
%"class.duckdb::DeltaByteArrayDecoder" = type { ptr, %"class.duckdb::unique_ptr.15", i64, i64 }
%"class.duckdb::optional_idx" = type { i64 }
%"struct.duckdb::ParquetColumnSchema" = type { i32, %"class.std::__cxx11::basic_string", %"struct.duckdb::LogicalType", i64, i64, i64, i64, %"class.duckdb::optional_idx", i32, i32, i32, i32, %"class.duckdb::vector.160" }
%"struct.duckdb::LogicalType" = type { i8, i8, %"class.duckdb::shared_ptr.156" }
%"class.duckdb::shared_ptr.156" = type { %"class.std::shared_ptr.157" }
%"class.std::shared_ptr.157" = type { %"class.std::__shared_ptr.158" }
%"class.std::__shared_ptr.158" = type { ptr, %"class.std::__shared_count" }
%"class.duckdb::vector.160" = type { %"class.std::vector.161" }
%"class.std::vector.161" = type { %"struct.std::_Vector_base.162" }
%"struct.std::_Vector_base.162" = type { %"struct.std::_Vector_base<duckdb::ParquetColumnSchema, std::allocator<duckdb::ParquetColumnSchema>>::_Vector_impl" }
%"struct.std::_Vector_base<duckdb::ParquetColumnSchema, std::allocator<duckdb::ParquetColumnSchema>>::_Vector_impl" = type { %"struct.std::_Vector_base<duckdb::ParquetColumnSchema, std::allocator<duckdb::ParquetColumnSchema>>::_Vector_impl_data" }
%"struct.std::_Vector_base<duckdb::ParquetColumnSchema, std::allocator<duckdb::ParquetColumnSchema>>::_Vector_impl_data" = type { ptr, ptr, ptr }
%"class.duckdb::DbpDecoder" = type { %"class.duckdb::ByteBuffer", i64, i64, i64, i64, i64, i8, i64, i64, i64, ptr, i64, [32 x i64], i64 }

@_ZTISt13runtime_error = external constant ptr
@.str.1 = private unnamed_addr constant [50 x i8] c"DELTA_BINARY_PACKED should only be INT32 or INT64\00", align 1
@.str.32 = private unnamed_addr constant [38 x i8] c"DBP decode did not find enough values\00", align 1

; Function Attrs: inlinehint mustprogress nounwind uwtable
define linkonce_odr noundef i64 @_ZNK6duckdb12ColumnReader9MaxDefineEv(ptr noundef nonnull align 8 dereferenceable(544) %0) #5 comdat align 2 {
  %2 = alloca ptr, align 8
  store ptr %0, ptr %2, align 8, !tbaa !8
  %3 = load ptr, ptr %2, align 8
  %4 = getelementptr inbounds nuw %"class.duckdb::ColumnReader", ptr %3, i32 0, i32 1
  %5 = load ptr, ptr %4, align 8, !tbaa !222
  %6 = getelementptr inbounds nuw %"struct.duckdb::ParquetColumnSchema", ptr %5, i32 0, i32 3
  %7 = load i64, ptr %6, align 8, !tbaa !277
  ret i64 %7
}

; Function Attrs: mustprogress uwtable
define linkonce_odr void @_ZN6duckdb10DbpDecoder4SkipIlEEvm(ptr noundef nonnull align 8 dereferenceable(368) %0, i64 noundef %1) #6 comdat align 2 personality ptr @__gxx_personality_v0 {
  %3 = alloca ptr, align 8
  %4 = alloca i64, align 8
  %5 = alloca ptr, align 8
  %6 = alloca i32, align 4
  store ptr %0, ptr %3, align 8, !tbaa !241
  store i64 %1, ptr %4, align 8, !tbaa !30
  %7 = load ptr, ptr %3, align 8
  %8 = getelementptr inbounds nuw %"class.duckdb::DbpDecoder", ptr %7, i32 0, i32 7
  %9 = load i64, ptr %8, align 8, !tbaa !243
  %10 = load i64, ptr %4, align 8, !tbaa !30
  %11 = add i64 %9, %10
  %12 = getelementptr inbounds nuw %"class.duckdb::DbpDecoder", ptr %7, i32 0, i32 4
  %13 = load i64, ptr %12, align 8, !tbaa !245
  %14 = icmp ugt i64 %11, %13
  br i1 %14, label %15, label %22

15:                                               ; preds = %2
  %16 = call ptr @__cxa_allocate_exception(i64 16) #3
  invoke void @_ZNSt13runtime_errorC1EPKc(ptr noundef nonnull align 8 dereferenceable(16) %16, ptr noundef @.str.32)
          to label %17 unwind label %18

17:                                               ; preds = %15
  call void @__cxa_throw(ptr %16, ptr @_ZTISt13runtime_error, ptr @_ZNSt13runtime_errorD1Ev) #23
  unreachable

18:                                               ; preds = %15
  %19 = landingpad { ptr, i32 }
          cleanup
  %20 = extractvalue { ptr, i32 } %19, 0
  store ptr %20, ptr %5, align 8
  %21 = extractvalue { ptr, i32 } %19, 1
  store i32 %21, ptr %6, align 4
  call void @__cxa_free_exception(ptr %16) #3
  br label %28

22:                                               ; preds = %2
  %23 = load i64, ptr %4, align 8, !tbaa !30
  %24 = getelementptr inbounds nuw %"class.duckdb::DbpDecoder", ptr %7, i32 0, i32 7
  %25 = load i64, ptr %24, align 8, !tbaa !243
  %26 = add i64 %25, %23
  store i64 %26, ptr %24, align 8, !tbaa !243
  %27 = load i64, ptr %4, align 8, !tbaa !30
  call void @_ZN6duckdb10DbpDecoder16GetBatchInternalIlLb1EEEvPhm(ptr noundef nonnull align 8 dereferenceable(368) %7, ptr noundef null, i64 noundef %27)
  ret void

28:                                               ; preds = %18
  %29 = load ptr, ptr %5, align 8
  %30 = load i32, ptr %6, align 4
  %31 = insertvalue { ptr, i32 } poison, ptr %29, 0
  %32 = insertvalue { ptr, i32 } %31, i32 %30, 1
  resume { ptr, i32 } %32
}

; Function Attrs: mustprogress uwtable
define linkonce_odr void @_ZN6duckdb10DbpDecoder4SkipIiEEvm(ptr noundef nonnull align 8 dereferenceable(368) %0, i64 noundef %1) #6 comdat align 2 personality ptr @__gxx_personality_v0 {
  %3 = alloca ptr, align 8
  %4 = alloca i64, align 8
  %5 = alloca ptr, align 8
  %6 = alloca i32, align 4
  store ptr %0, ptr %3, align 8, !tbaa !241
  store i64 %1, ptr %4, align 8, !tbaa !30
  %7 = load ptr, ptr %3, align 8
  %8 = getelementptr inbounds nuw %"class.duckdb::DbpDecoder", ptr %7, i32 0, i32 7
  %9 = load i64, ptr %8, align 8, !tbaa !243
  %10 = load i64, ptr %4, align 8, !tbaa !30
  %11 = add i64 %9, %10
  %12 = getelementptr inbounds nuw %"class.duckdb::DbpDecoder", ptr %7, i32 0, i32 4
  %13 = load i64, ptr %12, align 8, !tbaa !245
  %14 = icmp ugt i64 %11, %13
  br i1 %14, label %15, label %22

15:                                               ; preds = %2
  %16 = call ptr @__cxa_allocate_exception(i64 16) #3
  invoke void @_ZNSt13runtime_errorC1EPKc(ptr noundef nonnull align 8 dereferenceable(16) %16, ptr noundef @.str.32)
          to label %17 unwind label %18

17:                                               ; preds = %15
  call void @__cxa_throw(ptr %16, ptr @_ZTISt13runtime_error, ptr @_ZNSt13runtime_errorD1Ev) #23
  unreachable

18:                                               ; preds = %15
  %19 = landingpad { ptr, i32 }
          cleanup
  %20 = extractvalue { ptr, i32 } %19, 0
  store ptr %20, ptr %5, align 8
  %21 = extractvalue { ptr, i32 } %19, 1
  store i32 %21, ptr %6, align 4
  call void @__cxa_free_exception(ptr %16) #3
  br label %28

22:                                               ; preds = %2
  %23 = load i64, ptr %4, align 8, !tbaa !30
  %24 = getelementptr inbounds nuw %"class.duckdb::DbpDecoder", ptr %7, i32 0, i32 7
  %25 = load i64, ptr %24, align 8, !tbaa !243
  %26 = add i64 %25, %23
  store i64 %26, ptr %24, align 8, !tbaa !243
  %27 = load i64, ptr %4, align 8, !tbaa !30
  call void @_ZN6duckdb10DbpDecoder16GetBatchInternalIiLb1EEEvPhm(ptr noundef nonnull align 8 dereferenceable(368) %7, ptr noundef null, i64 noundef %27)
  ret void

28:                                               ; preds = %18
  %29 = load ptr, ptr %5, align 8
  %30 = load i32, ptr %6, align 4
  %31 = insertvalue { ptr, i32 } poison, ptr %29, 0
  %32 = insertvalue { ptr, i32 } %31, i32 %30, 1
  resume { ptr, i32 } %32
}

; Function Attrs: mustprogress nounwind uwtable
define linkonce_odr noundef nonnull align 8 dereferenceable(144) ptr @_ZNK6duckdb12ColumnReader6SchemaEv(ptr noundef nonnull align 8 dereferenceable(544) %0) #4 comdat align 2 {
  %2 = alloca ptr, align 8
  store ptr %0, ptr %2, align 8, !tbaa !8
  %3 = load ptr, ptr %2, align 8
  %4 = getelementptr inbounds nuw %"class.duckdb::ColumnReader", ptr %3, i32 0, i32 1
  %5 = load ptr, ptr %4, align 8, !tbaa !222
  ret ptr %5
}

; Function Attrs: mustprogress uwtable
define linkonce_odr noundef i64 @_ZNK6duckdb12ColumnReader13GetValidCountEPhmm(ptr noundef nonnull align 8 dereferenceable(544) %0, ptr noundef %1, i64 noundef %2, i64 noundef %3) #6 comdat align 2 {
  %5 = alloca i64, align 8
  %6 = alloca ptr, align 8
  %7 = alloca ptr, align 8
  %8 = alloca i64, align 8
  %9 = alloca i64, align 8
  %10 = alloca i64, align 8
  %11 = alloca i64, align 8
  store ptr %0, ptr %6, align 8, !tbaa !8
  store ptr %1, ptr %7, align 8, !tbaa !35
  store i64 %2, ptr %8, align 8, !tbaa !30
  store i64 %3, ptr %9, align 8, !tbaa !30
  %12 = load ptr, ptr %6, align 8
  %13 = load ptr, ptr %7, align 8, !tbaa !35
  %14 = icmp ne ptr %13, null
  br i1 %14, label %17, label %15

15:                                               ; preds = %4
  %16 = load i64, ptr %8, align 8, !tbaa !30
  store i64 %16, ptr %5, align 8
  br label %42

17:                                               ; preds = %4
  call void @llvm.lifetime.start.p0(i64 8, ptr %10) #3
  store i64 0, ptr %10, align 8, !tbaa !30
  call void @llvm.lifetime.start.p0(i64 8, ptr %11) #3
  %18 = load i64, ptr %9, align 8, !tbaa !30
  store i64 %18, ptr %11, align 8, !tbaa !30
  br label %19

19:                                               ; preds = %37, %17
  %20 = load i64, ptr %11, align 8, !tbaa !30
  %21 = load i64, ptr %9, align 8, !tbaa !30
  %22 = load i64, ptr %8, align 8, !tbaa !30
  %23 = add i64 %21, %22
  %24 = icmp ult i64 %20, %23
  br i1 %24, label %26, label %25

25:                                               ; preds = %19
  call void @llvm.lifetime.end.p0(i64 8, ptr %11) #3
  br label %40

26:                                               ; preds = %19
  %27 = load ptr, ptr %7, align 8, !tbaa !35
  %28 = load i64, ptr %11, align 8, !tbaa !30
  %29 = getelementptr inbounds nuw i8, ptr %27, i64 %28
  %30 = load i8, ptr %29, align 1, !tbaa !218
  %31 = zext i8 %30 to i64
  %32 = call noundef i64 @_ZNK6duckdb12ColumnReader9MaxDefineEv(ptr noundef nonnull align 8 dereferenceable(544) %12)
  %33 = icmp eq i64 %31, %32
  %34 = zext i1 %33 to i64
  %35 = load i64, ptr %10, align 8, !tbaa !30
  %36 = add i64 %35, %34
  store i64 %36, ptr %10, align 8, !tbaa !30
  br label %37

37:                                               ; preds = %26
  %38 = load i64, ptr %11, align 8, !tbaa !30
  %39 = add i64 %38, 1
  store i64 %39, ptr %11, align 8, !tbaa !30
  br label %19, !llvm.loop !219

40:                                               ; preds = %25
  %41 = load i64, ptr %10, align 8, !tbaa !30
  store i64 %41, ptr %5, align 8
  call void @llvm.lifetime.end.p0(i64 8, ptr %10) #3
  br label %42

42:                                               ; preds = %40, %15
  %43 = load i64, ptr %5, align 8
  ret i64 %43
}

; Function Attrs: mustprogress uwtable
define void @_ZN6duckdb24DeltaBinaryPackedDecoder4SkipEPhm(ptr noundef nonnull align 8 dereferenceable(24) %0, ptr noundef %1, i64 noundef %2) #6 align 2 personality ptr @__gxx_personality_v0 {
  %4 = alloca ptr, align 8
  %5 = alloca ptr, align 8
  %6 = alloca i64, align 8
  %7 = alloca i64, align 8
  %8 = alloca ptr, align 8
  %9 = alloca i32, align 4
  store ptr %0, ptr %4, align 8, !tbaa !232
  store ptr %1, ptr %5, align 8, !tbaa !35
  store i64 %2, ptr %6, align 8, !tbaa !30
  %10 = load ptr, ptr %4, align 8
  call void @llvm.lifetime.start.p0(i64 8, ptr %7) #3
  %11 = getelementptr inbounds nuw %"class.duckdb::DeltaBinaryPackedDecoder", ptr %10, i32 0, i32 0
  %12 = load ptr, ptr %11, align 8, !tbaa !236
  %13 = load ptr, ptr %5, align 8, !tbaa !35
  %14 = load i64, ptr %6, align 8, !tbaa !30
  %15 = call noundef i64 @_ZNK6duckdb12ColumnReader13GetValidCountEPhmm(ptr noundef nonnull align 8 dereferenceable(544) %12, ptr noundef %13, i64 noundef %14, i64 noundef 0)
  store i64 %15, ptr %7, align 8, !tbaa !30
  %16 = getelementptr inbounds nuw %"class.duckdb::DeltaBinaryPackedDecoder", ptr %10, i32 0, i32 0
  %17 = load ptr, ptr %16, align 8, !tbaa !236
  %18 = call noundef nonnull align 8 dereferenceable(144) ptr @_ZNK6duckdb12ColumnReader6SchemaEv(ptr noundef nonnull align 8 dereferenceable(544) %17)
  %19 = getelementptr inbounds nuw %"struct.duckdb::ParquetColumnSchema", ptr %18, i32 0, i32 10
  %20 = load i32, ptr %19, align 8, !tbaa !197
  switch i32 %20, label %29 [
    i32 1, label %21
    i32 2, label %25
  ]

21:                                               ; preds = %3
  %22 = getelementptr inbounds nuw %"class.duckdb::DeltaBinaryPackedDecoder", ptr %10, i32 0, i32 2
  %23 = call noundef ptr @_ZNK6duckdb10unique_ptrINS_10DbpDecoderESt14default_deleteIS1_ELb1EEptEv(ptr noundef nonnull align 8 dereferenceable(8) %22)
  %24 = load i64, ptr %7, align 8, !tbaa !30
  call void @_ZN6duckdb10DbpDecoder4SkipIiEEvm(ptr noundef nonnull align 8 dereferenceable(368) %23, i64 noundef %24)
  br label %36

25:                                               ; preds = %3
  %26 = getelementptr inbounds nuw %"class.duckdb::DeltaBinaryPackedDecoder", ptr %10, i32 0, i32 2
  %27 = call noundef ptr @_ZNK6duckdb10unique_ptrINS_10DbpDecoderESt14default_deleteIS1_ELb1EEptEv(ptr noundef nonnull align 8 dereferenceable(8) %26)
  %28 = load i64, ptr %7, align 8, !tbaa !30
  call void @_ZN6duckdb10DbpDecoder4SkipIlEEvm(ptr noundef nonnull align 8 dereferenceable(368) %27, i64 noundef %28)
  br label %36

29:                                               ; preds = %3
  %30 = call ptr @__cxa_allocate_exception(i64 16) #3
  invoke void @_ZNSt13runtime_errorC1EPKc(ptr noundef nonnull align 8 dereferenceable(16) %30, ptr noundef @.str.1)
          to label %31 unwind label %32

31:                                               ; preds = %29
  call void @__cxa_throw(ptr %30, ptr @_ZTISt13runtime_error, ptr @_ZNSt13runtime_errorD1Ev) #23
  unreachable

32:                                               ; preds = %29
  %33 = landingpad { ptr, i32 }
          cleanup
  %34 = extractvalue { ptr, i32 } %33, 0
  store ptr %34, ptr %8, align 8
  %35 = extractvalue { ptr, i32 } %33, 1
  store i32 %35, ptr %9, align 4
  call void @__cxa_free_exception(ptr %30) #3
  call void @llvm.lifetime.end.p0(i64 8, ptr %7) #3
  br label %37

36:                                               ; preds = %25, %21
  call void @llvm.lifetime.end.p0(i64 8, ptr %7) #3
  ret void

37:                                               ; preds = %32
  %38 = load ptr, ptr %8, align 8
  %39 = load i32, ptr %9, align 4
  %40 = insertvalue { ptr, i32 } poison, ptr %38, 0
  %41 = insertvalue { ptr, i32 } %40, i32 %39, 1
  resume { ptr, i32 } %41
}