; Function Attrs: mustprogress uwtable
define void @_ZN6duckdb24DeltaBinaryPackedDecoder4SkipEPhm(ptr noundef nonnull align 8 dereferenceable(24) %0, ptr noundef readonly captures(address_is_null) %1, i64 noundef %2) local_unnamed_addr #4 align 2 personality ptr @__gxx_personality_v0 {
  %4 = load ptr, ptr %0, align 8, !tbaa !230
  %.not.i = icmp eq ptr %1, null
  br i1 %.not.i, label %_ZNK6duckdb12ColumnReader13GetValidCountEPhmm.exit, label %.preheader.i

.preheader.i:                                     ; preds = %3
  %.not = icmp eq i64 %2, 0
  br i1 %.not, label %_ZNK6duckdb12ColumnReader13GetValidCountEPhmm.exit, label %.lr.ph.i

.lr.ph.i:                                         ; preds = %.preheader.i
  %5 = getelementptr inbounds nuw i8, ptr %4, i64 8
  %6 = load ptr, ptr %5, align 8, !tbaa !43
  %7 = getelementptr inbounds nuw i8, ptr %6, i64 64
  %8 = load i64, ptr %7, align 8, !tbaa !100
  br label %9

9:                                                ; preds = %9, %.lr.ph.i
  %.016.i = phi i64 [ 0, %.lr.ph.i ], [ %16, %9 ]
  %.01215.i = phi i64 [ 0, %.lr.ph.i ], [ %15, %9 ]
  %10 = getelementptr inbounds nuw i8, ptr %1, i64 %.016.i
  %11 = load i8, ptr %10, align 1, !tbaa !118
  %12 = zext i8 %11 to i64
  %13 = icmp eq i64 %8, %12
  %14 = zext i1 %13 to i64
  %15 = add i64 %.01215.i, %14
  %16 = add nuw i64 %.016.i, 1
  %exitcond.not.i = icmp eq i64 %16, %2
  br i1 %exitcond.not.i, label %_ZNK6duckdb12ColumnReader13GetValidCountEPhmm.exit, label %9, !llvm.loop !119

_ZNK6duckdb12ColumnReader13GetValidCountEPhmm.exit: ; preds = %9, %3, %.preheader.i
  %.013.i = phi i64 [ %2, %3 ], [ 0, %.preheader.i ], [ %15, %9 ]
  %17 = getelementptr inbounds nuw i8, ptr %4, i64 8
  %18 = load ptr, ptr %17, align 8, !tbaa !43
  %19 = getelementptr inbounds nuw i8, ptr %18, i64 112
  %20 = load i32, ptr %19, align 8, !tbaa !214
  switch i32 %20, label %49 [
    i32 1, label %21
    i32 2, label %35
  ]

21:                                               ; preds = %_ZNK6duckdb12ColumnReader13GetValidCountEPhmm.exit
  %22 = getelementptr inbounds nuw i8, ptr %0, i64 16
  %23 = tail call noundef ptr @_ZNK6duckdb10unique_ptrINS_10DbpDecoderESt14default_deleteIS1_ELb1EEptEv(ptr noundef nonnull align 8 dereferenceable(8) %22)
  %24 = getelementptr inbounds nuw i8, ptr %23, i64 64
  %25 = load i64, ptr %24, align 8, !tbaa !240
  %26 = add i64 %25, %.013.i
  %27 = getelementptr inbounds nuw i8, ptr %23, i64 40
  %28 = load i64, ptr %27, align 8, !tbaa !242
  %29 = icmp ugt i64 %26, %28
  br i1 %29, label %30, label %_ZN6duckdb10DbpDecoder4SkipIiEEvm.exit

30:                                               ; preds = %21
  %31 = tail call ptr @__cxa_allocate_exception(i64 16) #24
  invoke void @_ZNSt13runtime_errorC1EPKc(ptr noundef nonnull align 8 dereferenceable(16) %31, ptr noundef nonnull @.str.32)
          to label %32 unwind label %33

32:                                               ; preds = %30
  tail call void @__cxa_throw(ptr nonnull %31, ptr nonnull @_ZTISt13runtime_error, ptr nonnull @_ZNSt13runtime_errorD1Ev) #25
  unreachable

common.resume:                                    ; preds = %52, %47, %33
  %.sink = phi ptr [ %50, %52 ], [ %45, %47 ], [ %31, %33 ]
  %common.resume.op = phi { ptr, i32 } [ %53, %52 ], [ %48, %47 ], [ %34, %33 ]
  tail call void @__cxa_free_exception(ptr nonnull %.sink) #24
  resume { ptr, i32 } %common.resume.op

33:                                               ; preds = %30
  %34 = landingpad { ptr, i32 }
          cleanup
  br label %common.resume

_ZN6duckdb10DbpDecoder4SkipIiEEvm.exit:           ; preds = %21
  store i64 %26, ptr %24, align 8, !tbaa !240
  tail call void @_ZN6duckdb10DbpDecoder16GetBatchInternalIiLb1EEEvPhm(ptr noundef nonnull align 8 dereferenceable(368) %23, ptr noundef null, i64 noundef %.013.i)
  br label %54

35:                                               ; preds = %_ZNK6duckdb12ColumnReader13GetValidCountEPhmm.exit
  %36 = getelementptr inbounds nuw i8, ptr %0, i64 16
  %37 = tail call noundef ptr @_ZNK6duckdb10unique_ptrINS_10DbpDecoderESt14default_deleteIS1_ELb1EEptEv(ptr noundef nonnull align 8 dereferenceable(8) %36)
  %38 = getelementptr inbounds nuw i8, ptr %37, i64 64
  %39 = load i64, ptr %38, align 8, !tbaa !240
  %40 = add i64 %39, %.013.i
  %41 = getelementptr inbounds nuw i8, ptr %37, i64 40
  %42 = load i64, ptr %41, align 8, !tbaa !242
  %43 = icmp ugt i64 %40, %42
  br i1 %43, label %44, label %_ZN6duckdb10DbpDecoder4SkipIlEEvm.exit

44:                                               ; preds = %35
  %45 = tail call ptr @__cxa_allocate_exception(i64 16) #24
  invoke void @_ZNSt13runtime_errorC1EPKc(ptr noundef nonnull align 8 dereferenceable(16) %45, ptr noundef nonnull @.str.32)
          to label %46 unwind label %47

46:                                               ; preds = %44
  tail call void @__cxa_throw(ptr nonnull %45, ptr nonnull @_ZTISt13runtime_error, ptr nonnull @_ZNSt13runtime_errorD1Ev) #25
  unreachable

47:                                               ; preds = %44
  %48 = landingpad { ptr, i32 }
          cleanup
  br label %common.resume

_ZN6duckdb10DbpDecoder4SkipIlEEvm.exit:           ; preds = %35
  store i64 %40, ptr %38, align 8, !tbaa !240
  tail call void @_ZN6duckdb10DbpDecoder16GetBatchInternalIlLb1EEEvPhm(ptr noundef nonnull align 8 dereferenceable(368) %37, ptr noundef null, i64 noundef %.013.i)
  br label %54

49:                                               ; preds = %_ZNK6duckdb12ColumnReader13GetValidCountEPhmm.exit
  %50 = tail call ptr @__cxa_allocate_exception(i64 16) #24
  invoke void @_ZNSt13runtime_errorC1EPKc(ptr noundef nonnull align 8 dereferenceable(16) %50, ptr noundef nonnull @.str.1)
          to label %51 unwind label %52

51:                                               ; preds = %49
  tail call void @__cxa_throw(ptr nonnull %50, ptr nonnull @_ZTISt13runtime_error, ptr nonnull @_ZNSt13runtime_errorD1Ev) #25
  unreachable

52:                                               ; preds = %49
  %53 = landingpad { ptr, i32 }
          cleanup
  br label %common.resume

54:                                               ; preds = %_ZN6duckdb10DbpDecoder4SkipIlEEvm.exit, %_ZN6duckdb10DbpDecoder4SkipIiEEvm.exit
  ret void
}